; ModuleID = '31/1763.c'
source_filename = "31/1763.c"
target datalayout = "e-m:e-p270:32:32-p271:32:32-p272:64:64-i64:64-f80:128-n8:16:32:64-S128"
target triple = "x86_64-pc-linux-gnu"

%struct.stu = type { [100 x i8], %struct.stu* }

@.str = private unnamed_addr constant [4 x i8] c"%s\0A\00", align 1
@.str.1 = private unnamed_addr constant [4 x i8] c"end\00", align 1

; Function Attrs: noinline nounwind uwtable
define dso_local void @down(%struct.stu* %0) #0 {
  %2 = alloca %struct.stu*, align 8
  store %struct.stu* %0, %struct.stu** %2, align 8
  %3 = load %struct.stu*, %struct.stu** %2, align 8
  %4 = getelementptr inbounds %struct.stu, %struct.stu* %3, i32 0, i32 1
  %5 = load %struct.stu*, %struct.stu** %4, align 8
  %6 = icmp ne %struct.stu* %5, null
  br i1 %6, label %7, label %11

7:                                                ; preds = %1
  %8 = load %struct.stu*, %struct.stu** %2, align 8
  %9 = getelementptr inbounds %struct.stu, %struct.stu* %8, i32 0, i32 1
  %10 = load %struct.stu*, %struct.stu** %9, align 8
  call void @down(%struct.stu* %10)
  br label %11

11:                                               ; preds = %7, %1
  %12 = load %struct.stu*, %struct.stu** %2, align 8
  %13 = getelementptr inbounds %struct.stu, %struct.stu* %12, i32 0, i32 1
  %14 = load %struct.stu*, %struct.stu** %13, align 8
  %15 = icmp ne %struct.stu* %14, null
  br i1 %15, label %16, label %21

16:                                               ; preds = %11
  %17 = load %struct.stu*, %struct.stu** %2, align 8
  %18 = getelementptr inbounds %struct.stu, %struct.stu* %17, i32 0, i32 0
  %19 = getelementptr inbounds [100 x i8], [100 x i8]* %18, i64 0, i64 0
  %20 = call i32 (i8*, ...) @printf(i8* getelementptr inbounds ([4 x i8], [4 x i8]* @.str, i64 0, i64 0), i8* %19)
  br label %21

21:                                               ; preds = %16, %11
  ret void
}

declare dso_local i32 @printf(i8*, ...) #1

; Function Attrs: noinline nounwind uwtable
define dso_local i32 @main() #0 {
  %1 = alloca i32, align 4
  %2 = alloca %struct.stu*, align 8
  %3 = alloca %struct.stu*, align 8
  %4 = alloca %struct.stu*, align 8
  store i32 0, i32* %1, align 4
  %5 = call noalias i8* @malloc(i64 112) #4
  %6 = bitcast i8* %5 to %struct.stu*
  store %struct.stu* %6, %struct.stu** %2, align 8
  %7 = load %struct.stu*, %struct.stu** %2, align 8
  %8 = getelementptr inbounds %struct.stu, %struct.stu* %7, i32 0, i32 1
  store %struct.stu* null, %struct.stu** %8, align 8
  %9 = load %struct.stu*, %struct.stu** %2, align 8
  %10 = getelementptr inbounds %struct.stu, %struct.stu* %9, i32 0, i32 0
  %11 = getelementptr inbounds [100 x i8], [100 x i8]* %10, i64 0, i64 0
  %12 = call i32 (i8*, ...) bitcast (i32 (...)* @gets to i32 (i8*, ...)*)(i8* %11)
  %13 = load %struct.stu*, %struct.stu** %2, align 8
  store %struct.stu* %13, %struct.stu** %3, align 8
  br label %14

14:                                               ; preds = %27, %0
  %15 = call noalias i8* @malloc(i64 112) #4
  %16 = bitcast i8* %15 to %struct.stu*
  store %struct.stu* %16, %struct.stu** %4, align 8
  %17 = load %struct.stu*, %struct.stu** %4, align 8
  %18 = getelementptr inbounds %struct.stu, %struct.stu* %17, i32 0, i32 1
  store %struct.stu* null, %struct.stu** %18, align 8
  %19 = load %struct.stu*, %struct.stu** %4, align 8
  %20 = getelementptr inbounds %struct.stu, %struct.stu* %19, i32 0, i32 0
  %21 = getelementptr inbounds [100 x i8], [100 x i8]* %20, i64 0, i64 0
  %22 = call i32 (i8*, ...) bitcast (i32 (...)* @gets to i32 (i8*, ...)*)(i8* %21)
  %23 = load %struct.stu*, %struct.stu** %4, align 8
  %24 = load %struct.stu*, %struct.stu** %3, align 8
  %25 = getelementptr inbounds %struct.stu, %struct.stu* %24, i32 0, i32 1
  store %struct.stu* %23, %struct.stu** %25, align 8
  %26 = load %struct.stu*, %struct.stu** %4, align 8
  store %struct.stu* %26, %struct.stu** %3, align 8
  br label %27

27:                                               ; preds = %14
  %28 = load %struct.stu*, %struct.stu** %3, align 8
  %29 = getelementptr inbounds %struct.stu, %struct.stu* %28, i32 0, i32 0
  %30 = getelementptr inbounds [100 x i8], [100 x i8]* %29, i64 0, i64 0
  %31 = call i32 @strcmp(i8* %30, i8* getelementptr inbounds ([4 x i8], [4 x i8]* @.str.1, i64 0, i64 0)) #5
  %32 = icmp ne i32 %31, 0
  br i1 %32, label %14, label %33

33:                                               ; preds = %27
  %34 = load %struct.stu*, %struct.stu** %2, align 8
  call void @down(%struct.stu* %34)
  ret i32 0
}

; Function Attrs: nounwind
declare dso_local noalias i8* @malloc(i64) #2

declare dso_local i32 @gets(...) #1

; Function Attrs: nounwind readonly
declare dso_local i32 @strcmp(i8*, i8*) #3


!llvm.module.flags = !{!0}
!llvm.ident = !{!1}

!0 = !{i32 1, !"wchar_size", i32 4}
!1 = !{!"clang version 10.0.0-4ubuntu1 "}
