; ModuleID = 'source-C-CXX/30/1763.c'
source_filename = "source-C-CXX/30/1763.c"
target datalayout = "e-m:e-p270:32:32-p271:32:32-p272:64:64-i64:64-f80:128-n8:16:32:64-S128"
target triple = "x86_64-pc-linux-gnu"

%struct.stu = type { [100 x i8], %struct.stu* }

@.str.1 = private unnamed_addr constant [4 x i8] c"end\00", align 1

; Function Attrs: nofree nounwind sspstrong uwtable
define dso_local void @down(%struct.stu* nocapture readonly %0) local_unnamed_addr #0 {
  %2 = getelementptr inbounds %struct.stu, %struct.stu* %0, i64 0, i32 1
  %3 = load %struct.stu*, %struct.stu** %2, align 8, !tbaa !5
  %4 = icmp eq %struct.stu* %3, null
  br i1 %4, label %11, label %5

5:                                                ; preds = %1
  tail call void @down(%struct.stu* nonnull %3)
  %6 = load %struct.stu*, %struct.stu** %2, align 8, !tbaa !5
  %7 = icmp eq %struct.stu* %6, null
  br i1 %7, label %11, label %8

8:                                                ; preds = %5
  %9 = getelementptr inbounds %struct.stu, %struct.stu* %0, i64 0, i32 0, i64 0
  %10 = tail call i32 @puts(i8* nonnull dereferenceable(1) %9)
  br label %11

11:                                               ; preds = %1, %8, %5
  ret void
}

; Function Attrs: nounwind sspstrong uwtable
define dso_local i32 @main() local_unnamed_addr #1 {
  %1 = tail call noalias align 16 dereferenceable_or_null(112) i8* @malloc(i64 112) #6
  %2 = bitcast i8* %1 to %struct.stu*
  %3 = getelementptr inbounds %struct.stu, %struct.stu* %2, i64 0, i32 1
  store %struct.stu* null, %struct.stu** %3, align 8, !tbaa !5
  %4 = getelementptr inbounds %struct.stu, %struct.stu* %2, i64 0, i32 0, i64 0
  %5 = tail call i32 (i8*, ...) bitcast (i32 (...)* @gets to i32 (i8*, ...)*)(i8* %4) #6
  br label %6

6:                                                ; preds = %6, %0
  %7 = phi %struct.stu* [ %2, %0 ], [ %9, %6 ]
  %8 = tail call noalias align 16 dereferenceable_or_null(112) i8* @malloc(i64 112) #6
  %9 = bitcast i8* %8 to %struct.stu*
  %10 = getelementptr inbounds %struct.stu, %struct.stu* %9, i64 0, i32 1
  store %struct.stu* null, %struct.stu** %10, align 8, !tbaa !5
  %11 = getelementptr inbounds %struct.stu, %struct.stu* %9, i64 0, i32 0, i64 0
  %12 = tail call i32 (i8*, ...) bitcast (i32 (...)* @gets to i32 (i8*, ...)*)(i8* %11) #6
  %13 = getelementptr inbounds %struct.stu, %struct.stu* %7, i64 0, i32 1
  %14 = bitcast %struct.stu** %13 to i8**
  store i8* %8, i8** %14, align 8, !tbaa !5
  %15 = tail call i32 @strcmp(i8* noundef nonnull dereferenceable(1) %11, i8* noundef nonnull dereferenceable(4) getelementptr inbounds ([4 x i8], [4 x i8]* @.str.1, i64 0, i64 0)) #7
  %16 = icmp eq i32 %15, 0
  br i1 %16, label %17, label %6, !llvm.loop !10

17:                                               ; preds = %6
  tail call void @down(%struct.stu* %2)
  ret i32 0
}

; Function Attrs: inaccessiblememonly mustprogress nofree nounwind willreturn
declare noalias noundef align 16 i8* @malloc(i64 noundef) local_unnamed_addr #2

declare i32 @gets(...) local_unnamed_addr #3

; Function Attrs: argmemonly mustprogress nofree nounwind readonly willreturn
declare i32 @strcmp(i8* nocapture, i8* nocapture) local_unnamed_addr #4

; Function Attrs: nofree nounwind
declare noundef i32 @puts(i8* nocapture noundef readonly) local_unnamed_addr #5


!llvm.module.flags = !{!0, !1, !2, !3}
!llvm.ident = !{!4}

!0 = !{i32 1, !"wchar_size", i32 4}
!1 = !{i32 7, !"PIC Level", i32 2}
!2 = !{i32 7, !"PIE Level", i32 2}
!3 = !{i32 7, !"uwtable", i32 1}
!4 = !{!"clang version 13.0.0"}
!5 = !{!6, !9, i64 104}
!6 = !{!"stu", !7, i64 0, !9, i64 104}
!7 = !{!"omnipotent char", !8, i64 0}
!8 = !{!"Simple C/C++ TBAA"}
!9 = !{!"any pointer", !7, i64 0}
!10 = distinct !{!10, !11}
!11 = !{!"llvm.loop.mustprogress"}
